; Function Attrs: mustprogress nofree norecurse nosync nounwind willreturn memory(readwrite, inaccessiblemem: none) uwtable
define range(i32 0, 128) i32 @ff_vvc_intra_luma_not_planar_flag(ptr noundef readonly captures(none) %0, i32 noundef %1) local_unnamed_addr #2 {
  %3 = getelementptr inbounds nuw i8, ptr %0, i64 4580560
  %4 = load ptr, ptr %3, align 16, !tbaa !67
  %5 = getelementptr inbounds nuw i8, ptr %4, i64 2672
  %6 = getelementptr inbounds nuw i8, ptr %4, i64 400
  %.not = icmp eq i32 %1, 0
  %7 = select i1 %.not, i64 68, i64 67
  %8 = getelementptr inbounds nuw %struct.VVCCabacState, ptr %6, i64 %7
  %9 = getelementptr inbounds nuw i8, ptr %4, i64 2676
  %10 = load i32, ptr %9, align 4, !tbaa !100
  %11 = ashr i32 %10, 5
  %12 = getelementptr inbounds nuw i8, ptr %8, i64 2
  %13 = load i16, ptr %12, align 2, !tbaa !58
  %14 = zext i16 %13 to i32
  %15 = load i16, ptr %8, align 2, !tbaa !58
  %16 = zext i16 %15 to i32
  %17 = shl nuw nsw i32 %16, 4
  %18 = add nuw nsw i32 %17, %14
  %.not.i = icmp samesign ult i32 %18, 16384
  %19 = sub nsw i32 32767, %18
  %20 = select i1 %.not.i, i32 %18, i32 %19
  %21 = ashr i32 %20, 9
  %22 = mul nsw i32 %21, %11
  %23 = ashr i32 %22, 1
  %24 = add nsw i32 %23, 4
  %25 = sub nsw i32 %10, %24
  %26 = shl i32 %25, 17
  %27 = load i32, ptr %5, align 8, !tbaa !70
  %28 = icmp slt i32 %26, %27
  %29 = select i1 %28, i32 %26, i32 0
  %30 = sub nsw i32 %27, %29
  %31 = select i1 %28, i32 %24, i32 %25
  %32 = sext i32 %31 to i64
  %33 = getelementptr inbounds i8, ptr @ff_h264_cabac_tables, i64 %32
  %34 = load i8, ptr %33, align 1, !tbaa !97
  %35 = zext i8 %34 to i32
  %36 = shl i32 %31, %35
  store i32 %36, ptr %9, align 4, !tbaa !100
  %37 = shl i32 %30, %35
  store i32 %37, ptr %5, align 8, !tbaa !70
  %38 = and i32 %37, 65535
  %.not42.i = icmp eq i32 %38, 0
  br i1 %.not42.i, label %39, label %vvc_get_cabac.exit

39:                                               ; preds = %2
  %40 = add nsw i32 %37, -1
  %41 = xor i32 %40, %37
  %42 = lshr i32 %41, 15
  %43 = zext nneg i32 %42 to i64
  %44 = getelementptr inbounds nuw i8, ptr @ff_h264_cabac_tables, i64 %43
  %45 = load i8, ptr %44, align 1, !tbaa !97
  %46 = zext i8 %45 to i32
  %47 = sub nsw i32 7, %46
  %48 = getelementptr inbounds nuw i8, ptr %4, i64 2688
  %49 = load ptr, ptr %48, align 8, !tbaa !68
  %50 = load i8, ptr %49, align 1, !tbaa !97
  %51 = zext i8 %50 to i32
  %52 = shl nuw nsw i32 %51, 9
  %53 = getelementptr inbounds nuw i8, ptr %49, i64 1
  %54 = load i8, ptr %53, align 1, !tbaa !97
  %55 = zext i8 %54 to i32
  %56 = shl nuw nsw i32 %55, 1
  %57 = or disjoint i32 %56, %52
  %58 = add nsw i32 %57, -65535
  %59 = shl nsw i32 %58, %47
  %60 = add i32 %59, %37
  store i32 %60, ptr %5, align 8, !tbaa !70
  %61 = getelementptr inbounds nuw i8, ptr %4, i64 2696
  %62 = load ptr, ptr %61, align 8, !tbaa !71
  %63 = icmp ult ptr %49, %62
  br i1 %63, label %64, label %vvc_get_cabac.exit

64:                                               ; preds = %39
  %65 = getelementptr inbounds nuw i8, ptr %49, i64 2
  store ptr %65, ptr %48, align 8, !tbaa !68
  br label %vvc_get_cabac.exit

vvc_get_cabac.exit:                               ; preds = %2, %39, %64
  %66 = lshr i32 %18, 14
  %67 = zext i1 %28 to i32
  %68 = xor i32 %66, %67
  %69 = getelementptr inbounds nuw i8, ptr %8, i64 4
  %70 = load i8, ptr %69, align 2, !tbaa !97
  %71 = zext i8 %70 to i32
  %72 = lshr i32 %16, %71
  %73 = sub nsw i32 %16, %72
  %74 = mul nuw nsw i32 %68, 1023
  %75 = lshr i32 %74, %71
  %76 = add nsw i32 %73, %75
  %77 = trunc i32 %76 to i16
  store i16 %77, ptr %8, align 2, !tbaa !58
  %78 = getelementptr inbounds nuw i8, ptr %8, i64 5
  %79 = load i8, ptr %78, align 1, !tbaa !97
  %80 = zext i8 %79 to i32
  %81 = lshr i32 %14, %80
  %82 = sub nsw i32 %14, %81
  %83 = mul nuw nsw i32 %68, 16383
  %84 = lshr i32 %83, %80
  %85 = add nsw i32 %82, %84
  %86 = trunc i32 %85 to i16
  store i16 %86, ptr %12, align 2, !tbaa !58
  ret i32 %68
}